target datalayout = "e-m:e-p270:32:32-p271:32:32-p272:64:64-i64:64-i128:128-f80:128-n8:16:32:64-S128"
target triple = "x86_64-pc-linux-gnu"

%struct.IDAMemRec = type { ptr, double, ptr, ptr, i32, double, double, ptr, i32, i32, ptr, ptr, i32, i32, [6 x ptr], [6 x double], [6 x double], [6 x double], [6 x double], [6 x double], ptr, ptr, ptr, ptr, ptr, ptr, ptr, ptr, ptr, ptr, ptr, ptr, ptr, ptr, ptr, ptr, ptr, double, ptr, ptr, i32, i32, i32, i32, i32, i32, i32, i32, double, double, double, i32, double, i32, i32, i32, i32, i32, double, double, double, double, double, double, double, double, double, double, double, double, double, double, double, double, i32, i32, i32, i32, i64, double, double, double, double, double, double, double, double, double, i64, i64, i64, i64, i64, i64, i64, i64, i64, i64, i64, double, i32, i32, i32, i32, i32, ptr, i32, ptr, ptr, ptr, ptr, ptr, ptr, ptr, double, i32, ptr, i32, ptr, ptr, double, double, double, ptr, ptr, ptr, double, double, i32, i32, i64, ptr, i32, [6 x double], [5 x double], [6 x ptr], [6 x ptr] }

@__func__.IDACreate = private unnamed_addr constant [10 x i8] c"IDACreate\00", align 1
@.str = private unnamed_addr constant [109 x i8] c"generated/home/dtcxzyw/WorkSpace/Projects/compilers/llvm-opt-benchmark/bench/sundials/sundials/src/ida/ida.c\00", align 1
@.str.1 = private unnamed_addr constant [23 x i8] c"sunctx = NULL illegal.\00", align 1
@.str.2 = private unnamed_addr constant [25 x i8] c"A memory request failed.\00", align 1

; Function Attrs: nounwind uwtable
define ptr @IDACreate(ptr noundef %0) #0 {
  %2 = alloca ptr, align 8
  %3 = alloca ptr, align 8
  %4 = alloca ptr, align 8
  %5 = alloca i32, align 4
  store ptr %0, ptr %3, align 8, !tbaa !3
  call void @llvm.lifetime.start.p0(i64 8, ptr %4) #10
  %6 = load ptr, ptr %3, align 8, !tbaa !3
  %7 = icmp eq ptr %6, null
  br i1 %7, label %8, label %9

8:                                                ; preds = %1
  call void (ptr, i32, i32, ptr, ptr, ptr, ...) @IDAProcessError(ptr noundef null, i32 noundef 0, i32 noundef 283, ptr noundef @__func__.IDACreate, ptr noundef @.str, ptr noundef @.str.1)
  store ptr null, ptr %2, align 8
  store i32 1, ptr %5, align 4
  br label %114

9:                                                ; preds = %1
  store ptr null, ptr %4, align 8, !tbaa !8
  %10 = call noalias ptr @malloc(i64 noundef 1384) #11
  store ptr %10, ptr %4, align 8, !tbaa !8
  %11 = load ptr, ptr %4, align 8, !tbaa !8
  %12 = icmp eq ptr %11, null
  br i1 %12, label %13, label %14

13:                                               ; preds = %9
  call void (ptr, i32, i32, ptr, ptr, ptr, ...) @IDAProcessError(ptr noundef null, i32 noundef 0, i32 noundef 291, ptr noundef @__func__.IDACreate, ptr noundef @.str, ptr noundef @.str.2)
  store ptr null, ptr %2, align 8
  store i32 1, ptr %5, align 4
  br label %114

14:                                               ; preds = %9
  %15 = load ptr, ptr %4, align 8, !tbaa !8
  call void @llvm.memset.p0.i64(ptr align 8 %15, i8 0, i64 1384, i1 false)
  %16 = load ptr, ptr %3, align 8, !tbaa !3
  %17 = load ptr, ptr %4, align 8, !tbaa !8
  %18 = getelementptr inbounds nuw %struct.IDAMemRec, ptr %17, i32 0, i32 0
  store ptr %16, ptr %18, align 8, !tbaa !10
  %19 = load ptr, ptr %4, align 8, !tbaa !8
  %20 = getelementptr inbounds nuw %struct.IDAMemRec, ptr %19, i32 0, i32 1
  store double 0x3CB0000000000000, ptr %20, align 8, !tbaa !19
  %21 = load ptr, ptr %4, align 8, !tbaa !8
  %22 = getelementptr inbounds nuw %struct.IDAMemRec, ptr %21, i32 0, i32 2
  store ptr null, ptr %22, align 8, !tbaa !20
  %23 = load ptr, ptr %4, align 8, !tbaa !8
  %24 = getelementptr inbounds nuw %struct.IDAMemRec, ptr %23, i32 0, i32 3
  store ptr null, ptr %24, align 8, !tbaa !21
  %25 = load ptr, ptr %4, align 8, !tbaa !8
  %26 = getelementptr inbounds nuw %struct.IDAMemRec, ptr %25, i32 0, i32 4
  store i32 0, ptr %26, align 8, !tbaa !22
  %27 = load ptr, ptr %4, align 8, !tbaa !8
  %28 = getelementptr inbounds nuw %struct.IDAMemRec, ptr %27, i32 0, i32 8
  store i32 1, ptr %28, align 8, !tbaa !23
  %29 = load ptr, ptr %4, align 8, !tbaa !8
  %30 = getelementptr inbounds nuw %struct.IDAMemRec, ptr %29, i32 0, i32 9
  store i32 0, ptr %30, align 4, !tbaa !24
  %31 = load ptr, ptr %4, align 8, !tbaa !8
  %32 = getelementptr inbounds nuw %struct.IDAMemRec, ptr %31, i32 0, i32 10
  store ptr null, ptr %32, align 8, !tbaa !25
  %33 = load ptr, ptr %4, align 8, !tbaa !8
  %34 = getelementptr inbounds nuw %struct.IDAMemRec, ptr %33, i32 0, i32 11
  store ptr null, ptr %34, align 8, !tbaa !26
  %35 = load ptr, ptr %4, align 8, !tbaa !8
  %36 = getelementptr inbounds nuw %struct.IDAMemRec, ptr %35, i32 0, i32 76
  store i32 5, ptr %36, align 8, !tbaa !27
  %37 = load ptr, ptr %4, align 8, !tbaa !8
  %38 = getelementptr inbounds nuw %struct.IDAMemRec, ptr %37, i32 0, i32 78
  store i64 500, ptr %38, align 8, !tbaa !28
  %39 = load ptr, ptr %4, align 8, !tbaa !8
  %40 = getelementptr inbounds nuw %struct.IDAMemRec, ptr %39, i32 0, i32 79
  store double 0.000000e+00, ptr %40, align 8, !tbaa !29
  %41 = load ptr, ptr %4, align 8, !tbaa !8
  %42 = getelementptr inbounds nuw %struct.IDAMemRec, ptr %41, i32 0, i32 80
  store double 0.000000e+00, ptr %42, align 8, !tbaa !30
  %43 = load ptr, ptr %4, align 8, !tbaa !8
  %44 = getelementptr inbounds nuw %struct.IDAMemRec, ptr %43, i32 0, i32 81
  store double 2.000000e+00, ptr %44, align 8, !tbaa !31
  %45 = load ptr, ptr %4, align 8, !tbaa !8
  %46 = getelementptr inbounds nuw %struct.IDAMemRec, ptr %45, i32 0, i32 82
  store double 1.000000e+00, ptr %46, align 8, !tbaa !32
  %47 = load ptr, ptr %4, align 8, !tbaa !8
  %48 = getelementptr inbounds nuw %struct.IDAMemRec, ptr %47, i32 0, i32 83
  store double 2.000000e+00, ptr %48, align 8, !tbaa !33
  %49 = load ptr, ptr %4, align 8, !tbaa !8
  %50 = getelementptr inbounds nuw %struct.IDAMemRec, ptr %49, i32 0, i32 85
  store double 9.000000e-01, ptr %50, align 8, !tbaa !34
  %51 = load ptr, ptr %4, align 8, !tbaa !8
  %52 = getelementptr inbounds nuw %struct.IDAMemRec, ptr %51, i32 0, i32 84
  store double 5.000000e-01, ptr %52, align 8, !tbaa !35
  %53 = load ptr, ptr %4, align 8, !tbaa !8
  %54 = getelementptr inbounds nuw %struct.IDAMemRec, ptr %53, i32 0, i32 86
  store double 2.500000e-01, ptr %54, align 8, !tbaa !36
  %55 = load ptr, ptr %4, align 8, !tbaa !8
  %56 = getelementptr inbounds nuw %struct.IDAMemRec, ptr %55, i32 0, i32 87
  store double 2.500000e-01, ptr %56, align 8, !tbaa !37
  %57 = load ptr, ptr %4, align 8, !tbaa !8
  %58 = getelementptr inbounds nuw %struct.IDAMemRec, ptr %57, i32 0, i32 58
  store double 0.000000e+00, ptr %58, align 8, !tbaa !38
  %59 = load ptr, ptr %4, align 8, !tbaa !8
  %60 = getelementptr inbounds nuw %struct.IDAMemRec, ptr %59, i32 0, i32 72
  store double 3.300000e-01, ptr %60, align 8, !tbaa !39
  %61 = load ptr, ptr %4, align 8, !tbaa !8
  %62 = getelementptr inbounds nuw %struct.IDAMemRec, ptr %61, i32 0, i32 75
  store i32 10, ptr %62, align 4, !tbaa !40
  %63 = load ptr, ptr %4, align 8, !tbaa !8
  %64 = getelementptr inbounds nuw %struct.IDAMemRec, ptr %63, i32 0, i32 74
  store i32 10, ptr %64, align 8, !tbaa !41
  %65 = load ptr, ptr %4, align 8, !tbaa !8
  %66 = getelementptr inbounds nuw %struct.IDAMemRec, ptr %65, i32 0, i32 13
  store i32 0, ptr %66, align 4, !tbaa !42
  %67 = load ptr, ptr %4, align 8, !tbaa !8
  %68 = getelementptr inbounds nuw %struct.IDAMemRec, ptr %67, i32 0, i32 26
  store ptr null, ptr %68, align 8, !tbaa !43
  %69 = load ptr, ptr %4, align 8, !tbaa !8
  %70 = getelementptr inbounds nuw %struct.IDAMemRec, ptr %69, i32 0, i32 27
  store ptr null, ptr %70, align 8, !tbaa !44
  %71 = load ptr, ptr %4, align 8, !tbaa !8
  %72 = getelementptr inbounds nuw %struct.IDAMemRec, ptr %71, i32 0, i32 12
  store i32 0, ptr %72, align 8, !tbaa !45
  %73 = load ptr, ptr %4, align 8, !tbaa !8
  %74 = getelementptr inbounds nuw %struct.IDAMemRec, ptr %73, i32 0, i32 51
  store i32 0, ptr %74, align 8, !tbaa !46
  %75 = load ptr, ptr %4, align 8, !tbaa !8
  %76 = getelementptr inbounds nuw %struct.IDAMemRec, ptr %75, i32 0, i32 114
  store double 2.500000e-01, ptr %76, align 8, !tbaa !47
  %77 = load ptr, ptr %4, align 8, !tbaa !8
  %78 = getelementptr inbounds nuw %struct.IDAMemRec, ptr %77, i32 0, i32 77
  store i32 5, ptr %78, align 4, !tbaa !48
  %79 = load ptr, ptr %4, align 8, !tbaa !8
  %80 = getelementptr inbounds nuw %struct.IDAMemRec, ptr %79, i32 0, i32 48
  store double 0x3F6B089A02752547, ptr %80, align 8, !tbaa !49
  %81 = load ptr, ptr %4, align 8, !tbaa !8
  %82 = getelementptr inbounds nuw %struct.IDAMemRec, ptr %81, i32 0, i32 42
  store i32 5, ptr %82, align 8, !tbaa !50
  %83 = load ptr, ptr %4, align 8, !tbaa !8
  %84 = getelementptr inbounds nuw %struct.IDAMemRec, ptr %83, i32 0, i32 43
  store i32 4, ptr %84, align 4, !tbaa !51
  %85 = load ptr, ptr %4, align 8, !tbaa !8
  %86 = getelementptr inbounds nuw %struct.IDAMemRec, ptr %85, i32 0, i32 44
  store i32 10, ptr %86, align 8, !tbaa !52
  %87 = load ptr, ptr %4, align 8, !tbaa !8
  %88 = getelementptr inbounds nuw %struct.IDAMemRec, ptr %87, i32 0, i32 47
  store i32 100, ptr %88, align 4, !tbaa !53
  %89 = load ptr, ptr %4, align 8, !tbaa !8
  %90 = getelementptr inbounds nuw %struct.IDAMemRec, ptr %89, i32 0, i32 41
  store i32 0, ptr %90, align 4, !tbaa !54
  %91 = load ptr, ptr %4, align 8, !tbaa !8
  %92 = getelementptr inbounds nuw %struct.IDAMemRec, ptr %91, i32 0, i32 1
  %93 = load double, ptr %92, align 8, !tbaa !19
  %94 = call double @SUNRpowerR(double noundef %93, double noundef 6.670000e-01)
  %95 = load ptr, ptr %4, align 8, !tbaa !8
  %96 = getelementptr inbounds nuw %struct.IDAMemRec, ptr %95, i32 0, i32 49
  store double %94, ptr %96, align 8, !tbaa !55
  %97 = load ptr, ptr %4, align 8, !tbaa !8
  %98 = getelementptr inbounds nuw %struct.IDAMemRec, ptr %97, i32 0, i32 97
  store i64 55, ptr %98, align 8, !tbaa !56
  %99 = load ptr, ptr %4, align 8, !tbaa !8
  %100 = getelementptr inbounds nuw %struct.IDAMemRec, ptr %99, i32 0, i32 98
  store i64 38, ptr %100, align 8, !tbaa !57
  %101 = load ptr, ptr %4, align 8, !tbaa !8
  %102 = getelementptr inbounds nuw %struct.IDAMemRec, ptr %101, i32 0, i32 101
  store i32 0, ptr %102, align 4, !tbaa !58
  %103 = load ptr, ptr %4, align 8, !tbaa !8
  %104 = getelementptr inbounds nuw %struct.IDAMemRec, ptr %103, i32 0, i32 102
  store i32 0, ptr %104, align 8, !tbaa !59
  %105 = load ptr, ptr %4, align 8, !tbaa !8
  %106 = getelementptr inbounds nuw %struct.IDAMemRec, ptr %105, i32 0, i32 103
  store i32 0, ptr %106, align 4, !tbaa !60
  %107 = load ptr, ptr %4, align 8, !tbaa !8
  %108 = getelementptr inbounds nuw %struct.IDAMemRec, ptr %107, i32 0, i32 104
  store i32 0, ptr %108, align 8, !tbaa !61
  %109 = load ptr, ptr %4, align 8, !tbaa !8
  %110 = getelementptr inbounds nuw %struct.IDAMemRec, ptr %109, i32 0, i32 105
  store ptr null, ptr %110, align 8, !tbaa !62
  %111 = load ptr, ptr %4, align 8, !tbaa !8
  %112 = getelementptr inbounds nuw %struct.IDAMemRec, ptr %111, i32 0, i32 106
  store i32 0, ptr %112, align 8, !tbaa !63
  %113 = load ptr, ptr %4, align 8, !tbaa !8
  store ptr %113, ptr %2, align 8
  store i32 1, ptr %5, align 4
  br label %114

114:                                              ; preds = %14, %13, %8
  call void @llvm.lifetime.end.p0(i64 8, ptr %4) #10
  %115 = load ptr, ptr %2, align 8
  ret ptr %115
}