; Function Attrs: nounwind uwtable
define noalias noundef ptr @IDACreate(ptr noundef %0) local_unnamed_addr #0 {
  %2 = icmp eq ptr %0, null
  br i1 %2, label %3, label %4

3:                                                ; preds = %1
  tail call void (ptr, i32, i32, ptr, ptr, ptr, ...) @IDAProcessError(ptr noundef null, i32 noundef 0, i32 noundef 283, ptr noundef nonnull @__func__.IDACreate, ptr noundef nonnull @.str, ptr noundef nonnull @.str.1)
  br label %33

4:                                                ; preds = %1
  %calloc = tail call dereferenceable_or_null(1384) ptr @calloc(i64 1, i64 1384)
  %5 = icmp eq ptr %calloc, null
  br i1 %5, label %6, label %7

6:                                                ; preds = %4
  tail call void (ptr, i32, i32, ptr, ptr, ptr, ...) @IDAProcessError(ptr noundef null, i32 noundef 0, i32 noundef 291, ptr noundef nonnull @__func__.IDACreate, ptr noundef nonnull @.str, ptr noundef nonnull @.str.2)
  br label %33

7:                                                ; preds = %4
  store ptr %0, ptr %calloc, align 8, !tbaa !3
  %8 = getelementptr inbounds nuw i8, ptr %calloc, i64 8
  store double 0x3CB0000000000000, ptr %8, align 8, !tbaa !16
  %9 = getelementptr inbounds nuw i8, ptr %calloc, i64 64
  store i32 1, ptr %9, align 8, !tbaa !17
  %10 = getelementptr inbounds nuw i8, ptr %calloc, i64 776
  store i32 5, ptr %10, align 8, !tbaa !18
  %11 = getelementptr inbounds nuw i8, ptr %calloc, i64 784
  store i64 500, ptr %11, align 8, !tbaa !19
  %12 = getelementptr inbounds nuw i8, ptr %calloc, i64 808
  store double 2.000000e+00, ptr %12, align 8, !tbaa !20
  %13 = getelementptr inbounds nuw i8, ptr %calloc, i64 816
  store double 1.000000e+00, ptr %13, align 8, !tbaa !21
  %14 = getelementptr inbounds nuw i8, ptr %calloc, i64 824
  store double 2.000000e+00, ptr %14, align 8, !tbaa !22
  %15 = getelementptr inbounds nuw i8, ptr %calloc, i64 840
  store double 9.000000e-01, ptr %15, align 8, !tbaa !23
  %16 = getelementptr inbounds nuw i8, ptr %calloc, i64 832
  store double 5.000000e-01, ptr %16, align 8, !tbaa !24
  %17 = getelementptr inbounds nuw i8, ptr %calloc, i64 848
  store double 2.500000e-01, ptr %17, align 8, !tbaa !25
  %18 = getelementptr inbounds nuw i8, ptr %calloc, i64 856
  store double 2.500000e-01, ptr %18, align 8, !tbaa !26
  %19 = getelementptr inbounds nuw i8, ptr %calloc, i64 752
  store double 3.300000e-01, ptr %19, align 8, !tbaa !27
  %20 = getelementptr inbounds nuw i8, ptr %calloc, i64 772
  store i32 10, ptr %20, align 4, !tbaa !28
  %21 = getelementptr inbounds nuw i8, ptr %calloc, i64 768
  store i32 10, ptr %21, align 8, !tbaa !29
  %22 = getelementptr inbounds nuw i8, ptr %calloc, i64 1056
  store double 2.500000e-01, ptr %22, align 8, !tbaa !30
  %23 = getelementptr inbounds nuw i8, ptr %calloc, i64 780
  store i32 5, ptr %23, align 4, !tbaa !31
  %24 = getelementptr inbounds nuw i8, ptr %calloc, i64 576
  store double 0x3F6B089A02752547, ptr %24, align 8, !tbaa !32
  %25 = getelementptr inbounds nuw i8, ptr %calloc, i64 552
  store i32 5, ptr %25, align 8, !tbaa !33
  %26 = getelementptr inbounds nuw i8, ptr %calloc, i64 556
  store i32 4, ptr %26, align 4, !tbaa !34
  %27 = getelementptr inbounds nuw i8, ptr %calloc, i64 560
  store i32 10, ptr %27, align 8, !tbaa !35
  %28 = getelementptr inbounds nuw i8, ptr %calloc, i64 572
  store i32 100, ptr %28, align 4, !tbaa !36
  %29 = tail call double @SUNRpowerR(double noundef 0x3CB0000000000000, double noundef 6.670000e-01) #13
  %30 = getelementptr inbounds nuw i8, ptr %calloc, i64 584
  store double %29, ptr %30, align 8, !tbaa !37
  %31 = getelementptr inbounds nuw i8, ptr %calloc, i64 936
  store i64 55, ptr %31, align 8, !tbaa !38
  %32 = getelementptr inbounds nuw i8, ptr %calloc, i64 944
  store i64 38, ptr %32, align 8, !tbaa !39
  br label %33

33:                                               ; preds = %7, %6, %3
  %.0 = phi ptr [ null, %3 ], [ null, %6 ], [ %calloc, %7 ]
  ret ptr %.0
}